; Function Attrs: mustprogress nofree norecurse nosync nounwind willreturn memory(read, inaccessiblemem: none) uwtable
define noundef zeroext i1 @_ZN3gmx24QMMMTopologyPreprocessor8isQMAtomEl(ptr noundef nonnull readonly align 8 dereferenceable(212) %0, i64 noundef %1) local_unnamed_addr #19 align 2 {
  %3 = trunc i64 %1 to i32
  %4 = getelementptr inbounds nuw i8, ptr %0, i64 56
  %5 = load ptr, ptr %4, align 8, !tbaa !40
  %6 = getelementptr inbounds nuw i8, ptr %0, i64 48
  %.not10.i.i.i = icmp eq ptr %5, null
  br i1 %.not10.i.i.i, label %_ZNSt3setIiSt4lessIiESaIiEE4findERKi.exit, label %.lr.ph.i.i.i

.lr.ph.i.i.i:                                     ; preds = %2, %.lr.ph.i.i.i
  %.012.i.i.i = phi ptr [ %.1.i.i.i, %.lr.ph.i.i.i ], [ %5, %2 ]
  %.0811.i.i.i = phi ptr [ %.19.i.i.i, %.lr.ph.i.i.i ], [ %6, %2 ]
  %7 = getelementptr inbounds nuw i8, ptr %.012.i.i.i, i64 32
  %8 = load i32, ptr %7, align 4, !tbaa !41
  %9 = icmp slt i32 %8, %3
  %.19.i.i.i = select i1 %9, ptr %.0811.i.i.i, ptr %.012.i.i.i
  %.1.in.v.i.i.i = select i1 %9, i64 24, i64 16
  %.1.in.i.i.i = getelementptr inbounds nuw i8, ptr %.012.i.i.i, i64 %.1.in.v.i.i.i
  %.1.i.i.i = load ptr, ptr %.1.in.i.i.i, align 8, !tbaa !42
  %.not.i.i.i = icmp eq ptr %.1.i.i.i, null
  br i1 %.not.i.i.i, label %_ZNSt8_Rb_treeIiiSt9_IdentityIiESt4lessIiESaIiEE14_M_lower_boundEPSt13_Rb_tree_nodeIiEPSt18_Rb_tree_node_baseRKi.exit.i.i, label %.lr.ph.i.i.i, !llvm.loop !83

_ZNSt8_Rb_treeIiiSt9_IdentityIiESt4lessIiESaIiEE14_M_lower_boundEPSt13_Rb_tree_nodeIiEPSt18_Rb_tree_node_baseRKi.exit.i.i: ; preds = %.lr.ph.i.i.i
  %10 = icmp eq ptr %.19.i.i.i, %6
  br i1 %10, label %_ZNSt3setIiSt4lessIiESaIiEE4findERKi.exit, label %11

11:                                               ; preds = %_ZNSt8_Rb_treeIiiSt9_IdentityIiESt4lessIiESaIiEE14_M_lower_boundEPSt13_Rb_tree_nodeIiEPSt18_Rb_tree_node_baseRKi.exit.i.i
  %12 = getelementptr inbounds nuw i8, ptr %.19.i.i.i, i64 32
  %13 = load i32, ptr %12, align 4, !tbaa !41
  %14 = icmp sgt i32 %13, %3
  %spec.select.i.i = select i1 %14, ptr %6, ptr %.19.i.i.i
  br label %_ZNSt3setIiSt4lessIiESaIiEE4findERKi.exit

_ZNSt3setIiSt4lessIiESaIiEE4findERKi.exit:        ; preds = %2, %_ZNSt8_Rb_treeIiiSt9_IdentityIiESt4lessIiESaIiEE14_M_lower_boundEPSt13_Rb_tree_nodeIiEPSt18_Rb_tree_node_baseRKi.exit.i.i, %11
  %.sroa.0.0.i.i = phi ptr [ %6, %_ZNSt8_Rb_treeIiiSt9_IdentityIiESt4lessIiESaIiEE14_M_lower_boundEPSt13_Rb_tree_nodeIiEPSt18_Rb_tree_node_baseRKi.exit.i.i ], [ %6, %2 ], [ %spec.select.i.i, %11 ]
  %15 = icmp ne ptr %.sroa.0.0.i.i, %6
  ret i1 %15
}